; Function Attrs: nounwind sspstrong uwtable
define internal i64 @ossl_digest_name(i64 noundef %0) #0 {
  %2 = tail call ptr @rb_check_typeddata(i64 noundef %0, ptr noundef nonnull @ossl_digest_type) #4
  %.not = icmp eq ptr %2, null
  br i1 %.not, label %3, label %5

3:                                                ; preds = %1
  %4 = load i64, ptr @rb_eRuntimeError, align 8, !tbaa !6
  tail call void (i64, ptr, ...) @ossl_raise(i64 noundef %4, ptr noundef nonnull @.str.1) #5
  unreachable

5:                                                ; preds = %1
  %6 = tail call ptr @EVP_MD_CTX_get0_md(ptr noundef nonnull %2) #4
  %7 = tail call ptr @EVP_MD_get0_name(ptr noundef %6) #4
  %8 = tail call i64 @rb_str_new_cstr(ptr noundef %7) #4
  ret i64 %8
}